target datalayout = "e-m:e-p270:32:32-p271:32:32-p272:64:64-i64:64-i128:128-f80:128-n8:16:32:64-S128"
target triple = "x86_64-pc-linux-gnu"

@hf_iperf2_fpsl = internal global i32 0, align 4
@hf_iperf2_fpsu = internal global i32 0, align 4
@hf_iperf2_meanl = internal global i32 0, align 4
@hf_iperf2_meanu = internal global i32 0, align 4
@hf_iperf2_variancel = internal global i32 0, align 4
@hf_iperf2_varianceu = internal global i32 0, align 4
@hf_iperf2_burstipgl = internal global i32 0, align 4
@hf_iperf2_burstipg = internal global i32 0, align 4
@ett_ext_isochhdr = internal global i32 0, align 4
@.str.241 = private unnamed_addr constant [35 x i8] c"iPerf2 Extended Isochronous Header\00", align 1

; Function Attrs: null_pointer_is_valid sspstrong uwtable
define internal i32 @dissect_iperf2_isoch_header(ptr noundef %0, ptr noundef %1, i32 noundef %2) #0 {
  %4 = alloca ptr, align 8
  %5 = alloca ptr, align 8
  %6 = alloca i32, align 4
  %7 = alloca i32, align 4
  %8 = alloca ptr, align 8
  store ptr %0, ptr %4, align 8
  store ptr %1, ptr %5, align 8
  store i32 %2, ptr %6, align 4
  call void @llvm.lifetime.start.p0(i64 4, ptr %7) #5
  %9 = load i32, ptr %6, align 4
  store i32 %9, ptr %7, align 4
  call void @llvm.lifetime.start.p0(i64 8, ptr %8) #5
  %10 = load ptr, ptr %5, align 8
  %11 = load ptr, ptr %4, align 8
  %12 = load i32, ptr %6, align 4
  %13 = load i32, ptr @ett_ext_isochhdr, align 4
  %14 = call ptr @proto_tree_add_subtree(ptr noundef %10, ptr noundef %11, i32 noundef %12, i32 noundef 32, i32 noundef %13, ptr noundef null, ptr noundef @.str.241)
  store ptr %14, ptr %8, align 8
  %15 = load ptr, ptr %8, align 8
  %16 = load i32, ptr @hf_iperf2_fpsl, align 4
  %17 = load ptr, ptr %4, align 8
  %18 = load i32, ptr %6, align 4
  %19 = call ptr @proto_tree_add_item(ptr noundef %15, i32 noundef %16, ptr noundef %17, i32 noundef %18, i32 noundef 4, i32 noundef 0)
  %20 = load i32, ptr %6, align 4
  %21 = add i32 %20, 4
  store i32 %21, ptr %6, align 4
  %22 = load ptr, ptr %8, align 8
  %23 = load i32, ptr @hf_iperf2_fpsu, align 4
  %24 = load ptr, ptr %4, align 8
  %25 = load i32, ptr %6, align 4
  %26 = call ptr @proto_tree_add_item(ptr noundef %22, i32 noundef %23, ptr noundef %24, i32 noundef %25, i32 noundef 4, i32 noundef 0)
  %27 = load i32, ptr %6, align 4
  %28 = add i32 %27, 4
  store i32 %28, ptr %6, align 4
  %29 = load ptr, ptr %8, align 8
  %30 = load i32, ptr @hf_iperf2_meanl, align 4
  %31 = load ptr, ptr %4, align 8
  %32 = load i32, ptr %6, align 4
  %33 = call ptr @proto_tree_add_item(ptr noundef %29, i32 noundef %30, ptr noundef %31, i32 noundef %32, i32 noundef 4, i32 noundef 0)
  %34 = load i32, ptr %6, align 4
  %35 = add i32 %34, 4
  store i32 %35, ptr %6, align 4
  %36 = load ptr, ptr %8, align 8
  %37 = load i32, ptr @hf_iperf2_meanu, align 4
  %38 = load ptr, ptr %4, align 8
  %39 = load i32, ptr %6, align 4
  %40 = call ptr @proto_tree_add_item(ptr noundef %36, i32 noundef %37, ptr noundef %38, i32 noundef %39, i32 noundef 4, i32 noundef 0)
  %41 = load i32, ptr %6, align 4
  %42 = add i32 %41, 4
  store i32 %42, ptr %6, align 4
  %43 = load ptr, ptr %8, align 8
  %44 = load i32, ptr @hf_iperf2_variancel, align 4
  %45 = load ptr, ptr %4, align 8
  %46 = load i32, ptr %6, align 4
  %47 = call ptr @proto_tree_add_item(ptr noundef %43, i32 noundef %44, ptr noundef %45, i32 noundef %46, i32 noundef 4, i32 noundef 0)
  %48 = load i32, ptr %6, align 4
  %49 = add i32 %48, 4
  store i32 %49, ptr %6, align 4
  %50 = load ptr, ptr %8, align 8
  %51 = load i32, ptr @hf_iperf2_varianceu, align 4
  %52 = load ptr, ptr %4, align 8
  %53 = load i32, ptr %6, align 4
  %54 = call ptr @proto_tree_add_item(ptr noundef %50, i32 noundef %51, ptr noundef %52, i32 noundef %53, i32 noundef 4, i32 noundef 0)
  %55 = load i32, ptr %6, align 4
  %56 = add i32 %55, 4
  store i32 %56, ptr %6, align 4
  %57 = load ptr, ptr %8, align 8
  %58 = load i32, ptr @hf_iperf2_burstipgl, align 4
  %59 = load ptr, ptr %4, align 8
  %60 = load i32, ptr %6, align 4
  %61 = call ptr @proto_tree_add_item(ptr noundef %57, i32 noundef %58, ptr noundef %59, i32 noundef %60, i32 noundef 4, i32 noundef 0)
  %62 = load i32, ptr %6, align 4
  %63 = add i32 %62, 4
  store i32 %63, ptr %6, align 4
  %64 = load ptr, ptr %8, align 8
  %65 = load i32, ptr @hf_iperf2_burstipg, align 4
  %66 = load ptr, ptr %4, align 8
  %67 = load i32, ptr %6, align 4
  %68 = call ptr @proto_tree_add_item(ptr noundef %64, i32 noundef %65, ptr noundef %66, i32 noundef %67, i32 noundef 4, i32 noundef 0)
  %69 = load i32, ptr %6, align 4
  %70 = add i32 %69, 4
  store i32 %70, ptr %6, align 4
  %71 = load i32, ptr %6, align 4
  %72 = load i32, ptr %7, align 4
  %73 = sub i32 %71, %72
  call void @llvm.lifetime.end.p0(i64 8, ptr %8) #5
  call void @llvm.lifetime.end.p0(i64 4, ptr %7) #5
  ret i32 %73
}