; Function Attrs: null_pointer_is_valid sspstrong uwtable
define internal fastcc noundef i32 @dissect_iperf2_isoch_header(ptr noundef %0, ptr noundef %1, i32 noundef %2) unnamed_addr #0 {
  %4 = load i32, ptr @ett_ext_isochhdr, align 4
  %5 = tail call ptr @proto_tree_add_subtree(ptr noundef %1, ptr noundef %0, i32 noundef %2, i32 noundef 32, i32 noundef %4, ptr noundef null, ptr noundef nonnull @.str.241)
  %6 = load i32, ptr @hf_iperf2_fpsl, align 4
  %7 = tail call ptr @proto_tree_add_item(ptr noundef %5, i32 noundef %6, ptr noundef %0, i32 noundef %2, i32 noundef 4, i32 noundef 0)
  %8 = add i32 %2, 4
  %9 = load i32, ptr @hf_iperf2_fpsu, align 4
  %10 = tail call ptr @proto_tree_add_item(ptr noundef %5, i32 noundef %9, ptr noundef %0, i32 noundef %8, i32 noundef 4, i32 noundef 0)
  %11 = add i32 %2, 8
  %12 = load i32, ptr @hf_iperf2_meanl, align 4
  %13 = tail call ptr @proto_tree_add_item(ptr noundef %5, i32 noundef %12, ptr noundef %0, i32 noundef %11, i32 noundef 4, i32 noundef 0)
  %14 = add i32 %2, 12
  %15 = load i32, ptr @hf_iperf2_meanu, align 4
  %16 = tail call ptr @proto_tree_add_item(ptr noundef %5, i32 noundef %15, ptr noundef %0, i32 noundef %14, i32 noundef 4, i32 noundef 0)
  %17 = add i32 %2, 16
  %18 = load i32, ptr @hf_iperf2_variancel, align 4
  %19 = tail call ptr @proto_tree_add_item(ptr noundef %5, i32 noundef %18, ptr noundef %0, i32 noundef %17, i32 noundef 4, i32 noundef 0)
  %20 = add i32 %2, 20
  %21 = load i32, ptr @hf_iperf2_varianceu, align 4
  %22 = tail call ptr @proto_tree_add_item(ptr noundef %5, i32 noundef %21, ptr noundef %0, i32 noundef %20, i32 noundef 4, i32 noundef 0)
  %23 = add i32 %2, 24
  %24 = load i32, ptr @hf_iperf2_burstipgl, align 4
  %25 = tail call ptr @proto_tree_add_item(ptr noundef %5, i32 noundef %24, ptr noundef %0, i32 noundef %23, i32 noundef 4, i32 noundef 0)
  %26 = add i32 %2, 28
  %27 = load i32, ptr @hf_iperf2_burstipg, align 4
  %28 = tail call ptr @proto_tree_add_item(ptr noundef %5, i32 noundef %27, ptr noundef %0, i32 noundef %26, i32 noundef 4, i32 noundef 0)
  ret i32 32
}